target datalayout = "e-m:e-p270:32:32-p271:32:32-p272:64:64-i64:64-i128:128-f80:128-n8:16:32:64-S128"
target triple = "x86_64-pc-linux-gnu"

%struct.FunctionCallInfoBaseData = type { ptr, ptr, ptr, i32, i8, i16, [0 x %struct.NullableDatum] }
%struct.NullableDatum = type { i64, i8 }

@.str.1 = private unnamed_addr constant [9 x i8] c"dbsize.c\00", align 1
@.str.2 = private unnamed_addr constant [38 x i8] c"tablespace with OID %u does not exist\00", align 1
@__func__.pg_tablespace_size_oid = private unnamed_addr constant [23 x i8] c"pg_tablespace_size_oid\00", align 1

; Function Attrs: inlinehint nounwind uwtable
define internal i64 @Int64GetDatum(i64 noundef %0) #2 {
  %2 = alloca i64, align 8
  store i64 %0, ptr %2, align 8
  %3 = load i64, ptr %2, align 8
  ret i64 %3
}

; Function Attrs: inlinehint nounwind uwtable
define internal i64 @ObjectIdGetDatum(i32 noundef %0) #2 {
  %2 = alloca i32, align 4
  store i32 %0, ptr %2, align 4
  %3 = load i32, ptr %2, align 4
  %4 = zext i32 %3 to i64
  ret i64 %4
}

; Function Attrs: inlinehint nounwind uwtable
define internal i32 @DatumGetObjectId(i64 noundef %0) #2 {
  %2 = alloca i64, align 8
  store i64 %0, ptr %2, align 8
  %3 = load i64, ptr %2, align 8
  %4 = trunc i64 %3 to i32
  ret i32 %4
}

; Function Attrs: nounwind uwtable
define dso_local i64 @pg_tablespace_size_oid(ptr noundef %0) #0 {
  %2 = alloca i64, align 8
  %3 = alloca ptr, align 8
  %4 = alloca i32, align 4
  %5 = alloca i64, align 8
  %6 = alloca i32, align 4
  store ptr %0, ptr %3, align 8
  call void @llvm.lifetime.start.p0(i64 4, ptr %4) #10
  %7 = load ptr, ptr %3, align 8
  %8 = getelementptr inbounds nuw %struct.FunctionCallInfoBaseData, ptr %7, i32 0, i32 6
  %9 = getelementptr inbounds [0 x %struct.NullableDatum], ptr %8, i64 0, i64 0
  %10 = getelementptr inbounds nuw %struct.NullableDatum, ptr %9, i32 0, i32 0
  %11 = load i64, ptr %10, align 8
  %12 = call i32 @DatumGetObjectId(i64 noundef %11)
  store i32 %12, ptr %4, align 4
  call void @llvm.lifetime.start.p0(i64 8, ptr %5) #10
  %13 = load i32, ptr %4, align 4
  %14 = call i64 @ObjectIdGetDatum(i32 noundef %13)
  %15 = call zeroext i1 @SearchSysCacheExists(i32 noundef 69, i64 noundef %14, i64 noundef 0, i64 noundef 0, i64 noundef 0)
  br i1 %15, label %29, label %16

16:                                               ; preds = %1
  br label %17

17:                                               ; preds = %16
  br i1 true, label %18, label %20

18:                                               ; preds = %17
  %19 = call zeroext i1 @errstart_cold(i32 noundef 21, ptr noundef null) #11
  br i1 %19, label %22, label %26

20:                                               ; preds = %17
  %21 = call zeroext i1 @errstart(i32 noundef 21, ptr noundef null)
  br i1 %21, label %22, label %26

22:                                               ; preds = %20, %18
  %23 = call i32 @errcode(i32 noundef 67137668)
  %24 = load i32, ptr %4, align 4
  %25 = call i32 (ptr, ...) @errmsg(ptr noundef @.str.2, i32 noundef %24)
  call void @errfinish(ptr noundef @.str.1, i32 noundef 293, ptr noundef @__func__.pg_tablespace_size_oid)
  br label %26

26:                                               ; preds = %22, %20, %18
  unreachable

27:                                               ; No predecessors!
  br label %28

28:                                               ; preds = %27
  br label %29

29:                                               ; preds = %28, %1
  %30 = load i32, ptr %4, align 4
  %31 = call i64 @calculate_tablespace_size(i32 noundef %30)
  store i64 %31, ptr %5, align 8
  %32 = load i64, ptr %5, align 8
  %33 = icmp slt i64 %32, 0
  br i1 %33, label %34, label %40

34:                                               ; preds = %29
  br label %35

35:                                               ; preds = %34
  %36 = load ptr, ptr %3, align 8
  %37 = getelementptr inbounds nuw %struct.FunctionCallInfoBaseData, ptr %36, i32 0, i32 4
  store i8 1, ptr %37, align 4
  store i64 0, ptr %2, align 8
  store i32 1, ptr %6, align 4
  br label %43

38:                                               ; No predecessors!
  br label %39

39:                                               ; preds = %38
  br label %40

40:                                               ; preds = %39, %29
  %41 = load i64, ptr %5, align 8
  %42 = call i64 @Int64GetDatum(i64 noundef %41)
  store i64 %42, ptr %2, align 8
  store i32 1, ptr %6, align 4
  br label %43

43:                                               ; preds = %40, %35
  call void @llvm.lifetime.end.p0(i64 8, ptr %5) #10
  call void @llvm.lifetime.end.p0(i64 4, ptr %4) #10
  %44 = load i64, ptr %2, align 8
  ret i64 %44
}