; Function Attrs: nounwind uwtable
define dso_local range(i64 0, -9223372036854775808) i64 @pg_tablespace_size_oid(ptr noundef captures(none) %0) local_unnamed_addr #0 {
  %2 = getelementptr inbounds nuw i8, ptr %0, i64 32
  %3 = load i64, ptr %2, align 8
  %4 = trunc i64 %3 to i32
  %5 = and i64 %3, 4294967295
  %6 = tail call zeroext i1 @SearchSysCacheExists(i32 noundef 69, i64 noundef %5, i64 noundef 0, i64 noundef 0, i64 noundef 0) #9
  br i1 %6, label %11, label %7

7:                                                ; preds = %1
  %8 = tail call zeroext i1 @errstart_cold(i32 noundef 21, ptr noundef null) #10
  tail call void @llvm.assume(i1 %8)
  %9 = tail call i32 @errcode(i32 noundef 67137668) #9
  %10 = tail call i32 (ptr, ...) @errmsg(ptr noundef nonnull @.str.2, i32 noundef %4) #9
  tail call void @errfinish(ptr noundef nonnull @.str.1, i32 noundef 293, ptr noundef nonnull @__func__.pg_tablespace_size_oid) #9
  unreachable

11:                                               ; preds = %1
  %12 = tail call fastcc i64 @calculate_tablespace_size(i32 noundef %4)
  %13 = icmp slt i64 %12, 0
  br i1 %13, label %14, label %16

14:                                               ; preds = %11
  %15 = getelementptr inbounds nuw i8, ptr %0, i64 28
  store i8 1, ptr %15, align 4
  br label %16

16:                                               ; preds = %11, %14
  %.0 = phi i64 [ 0, %14 ], [ %12, %11 ]
  ret i64 %.0
}